; ModuleID = 'source-C-CXX/62/507.c'
source_filename = "source-C-CXX/62/507.c"
target datalayout = "e-m:e-p270:32:32-p271:32:32-p272:64:64-i64:64-f80:128-n8:16:32:64-S128"
target triple = "x86_64-pc-linux-gnu"

%struct._IO_FILE = type { i32, i8*, i8*, i8*, i8*, i8*, i8*, i8*, i8*, i8*, i8*, i8*, %struct._IO_marker*, %struct._IO_FILE*, i32, i32, i64, i16, i8, [1 x i8], i8*, i64, %struct._IO_codecvt*, %struct._IO_wide_data*, %struct._IO_FILE*, i8*, i64, i32, [20 x i8] }
%struct._IO_marker = type opaque
%struct._IO_codecvt = type opaque
%struct._IO_wide_data = type opaque

@.str = private unnamed_addr constant [6 x i8] c"%d %d\00", align 1
@.str.1 = private unnamed_addr constant [3 x i8] c"%d\00", align 1
@.str.2 = private unnamed_addr constant [4 x i8] c" %d\00", align 1
@stdin = external local_unnamed_addr global %struct._IO_FILE*, align 8

; Function Attrs: nofree nounwind sspstrong uwtable
define dso_local i32 @main() local_unnamed_addr #0 {
  %1 = alloca [100 x [100 x i32]], align 16
  %2 = alloca [100 x [100 x i32]], align 16
  %3 = alloca i32, align 4
  %4 = alloca i32, align 4
  %5 = alloca i32, align 4
  %6 = alloca i32, align 4
  %7 = alloca [100 x [100 x i32]], align 16
  %8 = bitcast [100 x [100 x i32]]* %1 to i8*
  call void @llvm.lifetime.start.p0i8(i64 40000, i8* nonnull %8) #5
  %9 = bitcast [100 x [100 x i32]]* %2 to i8*
  call void @llvm.lifetime.start.p0i8(i64 40000, i8* nonnull %9) #5
  %10 = bitcast i32* %3 to i8*
  call void @llvm.lifetime.start.p0i8(i64 4, i8* nonnull %10) #5
  %11 = bitcast i32* %4 to i8*
  call void @llvm.lifetime.start.p0i8(i64 4, i8* nonnull %11) #5
  %12 = bitcast i32* %5 to i8*
  call void @llvm.lifetime.start.p0i8(i64 4, i8* nonnull %12) #5
  %13 = bitcast i32* %6 to i8*
  call void @llvm.lifetime.start.p0i8(i64 4, i8* nonnull %13) #5
  %14 = call i32 (i8*, ...) @__isoc99_scanf(i8* getelementptr inbounds ([6 x i8], [6 x i8]* @.str, i64 0, i64 0), i32* nonnull %3, i32* nonnull %4)
  %15 = load i32, i32* %3, align 4, !tbaa !5
  %16 = icmp sgt i32 %15, 0
  %17 = load i32, i32* %4, align 4
  %18 = icmp sgt i32 %17, 0
  %19 = select i1 %16, i1 %18, i1 false
  br i1 %19, label %20, label %41

20:                                               ; preds = %0, %35
  %21 = phi i32 [ %36, %35 ], [ %15, %0 ]
  %22 = phi i32 [ %37, %35 ], [ %17, %0 ]
  %23 = phi i64 [ %38, %35 ], [ 0, %0 ]
  %24 = icmp sgt i32 %22, 0
  br i1 %24, label %25, label %35

25:                                               ; preds = %20, %25
  %26 = phi i64 [ %29, %25 ], [ 0, %20 ]
  %27 = getelementptr inbounds [100 x [100 x i32]], [100 x [100 x i32]]* %1, i64 0, i64 %23, i64 %26
  %28 = call i32 (i8*, ...) @__isoc99_scanf(i8* getelementptr inbounds ([3 x i8], [3 x i8]* @.str.1, i64 0, i64 0), i32* nonnull %27)
  %29 = add nuw nsw i64 %26, 1
  %30 = load i32, i32* %4, align 4, !tbaa !5
  %31 = sext i32 %30 to i64
  %32 = icmp slt i64 %29, %31
  br i1 %32, label %25, label %33, !llvm.loop !9

33:                                               ; preds = %25
  %34 = load i32, i32* %3, align 4, !tbaa !5
  br label %35

35:                                               ; preds = %33, %20
  %36 = phi i32 [ %34, %33 ], [ %21, %20 ]
  %37 = phi i32 [ %30, %33 ], [ %22, %20 ]
  %38 = add nuw nsw i64 %23, 1
  %39 = sext i32 %36 to i64
  %40 = icmp slt i64 %38, %39
  br i1 %40, label %20, label %41, !llvm.loop !11

41:                                               ; preds = %35, %0
  %42 = call i32 (i8*, ...) @__isoc99_scanf(i8* getelementptr inbounds ([6 x i8], [6 x i8]* @.str, i64 0, i64 0), i32* nonnull %5, i32* nonnull %6)
  %43 = load i32, i32* %5, align 4, !tbaa !5
  %44 = icmp sgt i32 %43, 0
  %45 = load i32, i32* %6, align 4
  %46 = icmp sgt i32 %45, 0
  %47 = select i1 %44, i1 %46, i1 false
  br i1 %47, label %48, label %69

48:                                               ; preds = %41, %63
  %49 = phi i32 [ %64, %63 ], [ %43, %41 ]
  %50 = phi i32 [ %65, %63 ], [ %45, %41 ]
  %51 = phi i64 [ %66, %63 ], [ 0, %41 ]
  %52 = icmp sgt i32 %50, 0
  br i1 %52, label %53, label %63

53:                                               ; preds = %48, %53
  %54 = phi i64 [ %57, %53 ], [ 0, %48 ]
  %55 = getelementptr inbounds [100 x [100 x i32]], [100 x [100 x i32]]* %2, i64 0, i64 %51, i64 %54
  %56 = call i32 (i8*, ...) @__isoc99_scanf(i8* getelementptr inbounds ([3 x i8], [3 x i8]* @.str.1, i64 0, i64 0), i32* nonnull %55)
  %57 = add nuw nsw i64 %54, 1
  %58 = load i32, i32* %6, align 4, !tbaa !5
  %59 = sext i32 %58 to i64
  %60 = icmp slt i64 %57, %59
  br i1 %60, label %53, label %61, !llvm.loop !13

61:                                               ; preds = %53
  %62 = load i32, i32* %5, align 4, !tbaa !5
  br label %63

63:                                               ; preds = %61, %48
  %64 = phi i32 [ %62, %61 ], [ %49, %48 ]
  %65 = phi i32 [ %58, %61 ], [ %50, %48 ]
  %66 = add nuw nsw i64 %51, 1
  %67 = sext i32 %64 to i64
  %68 = icmp slt i64 %66, %67
  br i1 %68, label %48, label %69, !llvm.loop !14

69:                                               ; preds = %63, %41
  %70 = phi i32 [ %45, %41 ], [ %65, %63 ]
  %71 = phi i32 [ %43, %41 ], [ %64, %63 ]
  %72 = bitcast [100 x [100 x i32]]* %7 to i8*
  call void @llvm.lifetime.start.p0i8(i64 40000, i8* nonnull %72) #5
  call void @llvm.memset.p0i8.i64(i8* noundef nonnull align 16 dereferenceable(40000) %72, i8 0, i64 40000, i1 false)
  %73 = load i32, i32* %3, align 4, !tbaa !5
  %74 = icmp sgt i32 %73, 0
  br i1 %74, label %75, label %155

75:                                               ; preds = %69
  %76 = icmp slt i32 %71, 1
  %77 = icmp slt i32 %70, 1
  %78 = select i1 %77, i1 true, i1 %76
  br i1 %78, label %132, label %79

79:                                               ; preds = %75
  %80 = zext i32 %73 to i64
  %81 = zext i32 %70 to i64
  %82 = zext i32 %71 to i64
  %83 = and i64 %82, 1
  %84 = icmp eq i32 %71, 1
  %85 = and i64 %82, 4294967294
  %86 = icmp eq i64 %83, 0
  br label %87

87:                                               ; preds = %79, %128
  %88 = phi i64 [ 0, %79 ], [ %129, %128 ]
  br label %89

89:                                               ; preds = %124, %87
  %90 = phi i64 [ %126, %124 ], [ 0, %87 ]
  %91 = getelementptr inbounds [100 x [100 x i32]], [100 x [100 x i32]]* %7, i64 0, i64 %88, i64 %90
  %92 = load i32, i32* %91, align 4, !tbaa !5
  br i1 %84, label %113, label %93

93:                                               ; preds = %89, %93
  %94 = phi i64 [ %110, %93 ], [ 0, %89 ]
  %95 = phi i32 [ %109, %93 ], [ %92, %89 ]
  %96 = phi i64 [ %111, %93 ], [ %85, %89 ]
  %97 = getelementptr inbounds [100 x [100 x i32]], [100 x [100 x i32]]* %1, i64 0, i64 %88, i64 %94
  %98 = load i32, i32* %97, align 8, !tbaa !5
  %99 = getelementptr inbounds [100 x [100 x i32]], [100 x [100 x i32]]* %2, i64 0, i64 %94, i64 %90
  %100 = load i32, i32* %99, align 4, !tbaa !5
  %101 = mul nsw i32 %100, %98
  %102 = add nsw i32 %101, %95
  %103 = or i64 %94, 1
  %104 = getelementptr inbounds [100 x [100 x i32]], [100 x [100 x i32]]* %1, i64 0, i64 %88, i64 %103
  %105 = load i32, i32* %104, align 4, !tbaa !5
  %106 = getelementptr inbounds [100 x [100 x i32]], [100 x [100 x i32]]* %2, i64 0, i64 %103, i64 %90
  %107 = load i32, i32* %106, align 4, !tbaa !5
  %108 = mul nsw i32 %107, %105
  %109 = add nsw i32 %108, %102
  %110 = add nuw nsw i64 %94, 2
  %111 = add i64 %96, -2
  %112 = icmp eq i64 %111, 0
  br i1 %112, label %113, label %93, !llvm.loop !15

113:                                              ; preds = %93, %89
  %114 = phi i32 [ undef, %89 ], [ %109, %93 ]
  %115 = phi i64 [ 0, %89 ], [ %110, %93 ]
  %116 = phi i32 [ %92, %89 ], [ %109, %93 ]
  br i1 %86, label %124, label %117

117:                                              ; preds = %113
  %118 = getelementptr inbounds [100 x [100 x i32]], [100 x [100 x i32]]* %2, i64 0, i64 %115, i64 %90
  %119 = load i32, i32* %118, align 4, !tbaa !5
  %120 = getelementptr inbounds [100 x [100 x i32]], [100 x [100 x i32]]* %1, i64 0, i64 %88, i64 %115
  %121 = load i32, i32* %120, align 4, !tbaa !5
  %122 = mul nsw i32 %119, %121
  %123 = add nsw i32 %122, %116
  br label %124

124:                                              ; preds = %113, %117
  %125 = phi i32 [ %114, %113 ], [ %123, %117 ]
  store i32 %125, i32* %91, align 4, !tbaa !5
  %126 = add nuw nsw i64 %90, 1
  %127 = icmp eq i64 %126, %81
  br i1 %127, label %128, label %89, !llvm.loop !16

128:                                              ; preds = %124
  %129 = add nuw nsw i64 %88, 1
  %130 = icmp eq i64 %129, %80
  br i1 %130, label %131, label %87, !llvm.loop !17

131:                                              ; preds = %128
  br i1 %74, label %132, label %155

132:                                              ; preds = %75, %131
  br label %133

133:                                              ; preds = %132, %149
  %134 = phi i64 [ %151, %149 ], [ 0, %132 ]
  %135 = getelementptr inbounds [100 x [100 x i32]], [100 x [100 x i32]]* %7, i64 0, i64 %134, i64 0
  %136 = load i32, i32* %135, align 16, !tbaa !5
  %137 = call i32 (i8*, ...) @printf(i8* nonnull dereferenceable(1) getelementptr inbounds ([3 x i8], [3 x i8]* @.str.1, i64 0, i64 0), i32 %136)
  %138 = load i32, i32* %6, align 4, !tbaa !5
  %139 = icmp sgt i32 %138, 1
  br i1 %139, label %140, label %149

140:                                              ; preds = %133, %140
  %141 = phi i64 [ %145, %140 ], [ 1, %133 ]
  %142 = getelementptr inbounds [100 x [100 x i32]], [100 x [100 x i32]]* %7, i64 0, i64 %134, i64 %141
  %143 = load i32, i32* %142, align 4, !tbaa !5
  %144 = call i32 (i8*, ...) @printf(i8* nonnull dereferenceable(1) getelementptr inbounds ([4 x i8], [4 x i8]* @.str.2, i64 0, i64 0), i32 %143)
  %145 = add nuw nsw i64 %141, 1
  %146 = load i32, i32* %6, align 4, !tbaa !5
  %147 = sext i32 %146 to i64
  %148 = icmp slt i64 %145, %147
  br i1 %148, label %140, label %149, !llvm.loop !18

149:                                              ; preds = %140, %133
  %150 = call i32 @putchar(i32 10)
  %151 = add nuw nsw i64 %134, 1
  %152 = load i32, i32* %3, align 4, !tbaa !5
  %153 = sext i32 %152 to i64
  %154 = icmp slt i64 %151, %153
  br i1 %154, label %133, label %155, !llvm.loop !19

155:                                              ; preds = %149, %69, %131
  %156 = load %struct._IO_FILE*, %struct._IO_FILE** @stdin, align 8, !tbaa !20
  %157 = call i32 @getc(%struct._IO_FILE* %156) #5
  %158 = load %struct._IO_FILE*, %struct._IO_FILE** @stdin, align 8, !tbaa !20
  %159 = call i32 @getc(%struct._IO_FILE* %158) #5
  %160 = load %struct._IO_FILE*, %struct._IO_FILE** @stdin, align 8, !tbaa !20
  %161 = call i32 @getc(%struct._IO_FILE* %160) #5
  call void @llvm.lifetime.end.p0i8(i64 40000, i8* nonnull %72) #5
  call void @llvm.lifetime.end.p0i8(i64 4, i8* nonnull %13) #5
  call void @llvm.lifetime.end.p0i8(i64 4, i8* nonnull %12) #5
  call void @llvm.lifetime.end.p0i8(i64 4, i8* nonnull %11) #5
  call void @llvm.lifetime.end.p0i8(i64 4, i8* nonnull %10) #5
  call void @llvm.lifetime.end.p0i8(i64 40000, i8* nonnull %9) #5
  call void @llvm.lifetime.end.p0i8(i64 40000, i8* nonnull %8) #5
  ret i32 0
}

; Function Attrs: argmemonly mustprogress nofree nosync nounwind willreturn
declare void @llvm.lifetime.start.p0i8(i64 immarg, i8* nocapture) #1

; Function Attrs: nofree nounwind
declare noundef i32 @__isoc99_scanf(i8* nocapture noundef readonly, ...) local_unnamed_addr #2

; Function Attrs: argmemonly mustprogress nofree nounwind willreturn writeonly
declare void @llvm.memset.p0i8.i64(i8* nocapture writeonly, i8, i64, i1 immarg) #3

; Function Attrs: nofree nounwind
declare noundef i32 @printf(i8* nocapture noundef readonly, ...) local_unnamed_addr #2

; Function Attrs: argmemonly mustprogress nofree nosync nounwind willreturn
declare void @llvm.lifetime.end.p0i8(i64 immarg, i8* nocapture) #1

; Function Attrs: nofree nounwind
declare noundef i32 @getc(%struct._IO_FILE* nocapture noundef) local_unnamed_addr #2

; Function Attrs: nofree nounwind
declare noundef i32 @putchar(i32 noundef) local_unnamed_addr #4


!llvm.module.flags = !{!0, !1, !2, !3}
!llvm.ident = !{!4}

!0 = !{i32 1, !"wchar_size", i32 4}
!1 = !{i32 7, !"PIC Level", i32 2}
!2 = !{i32 7, !"PIE Level", i32 2}
!3 = !{i32 7, !"uwtable", i32 1}
!4 = !{!"clang version 13.0.0"}
!5 = !{!6, !6, i64 0}
!6 = !{!"int", !7, i64 0}
!7 = !{!"omnipotent char", !8, i64 0}
!8 = !{!"Simple C/C++ TBAA"}
!9 = distinct !{!9, !10}
!10 = !{!"llvm.loop.mustprogress"}
!11 = distinct !{!11, !10, !12}
!12 = !{!"llvm.loop.unswitch.partial.disable"}
!13 = distinct !{!13, !10}
!14 = distinct !{!14, !10, !12}
!15 = distinct !{!15, !10}
!16 = distinct !{!16, !10}
!17 = distinct !{!17, !10}
!18 = distinct !{!18, !10}
!19 = distinct !{!19, !10}
!20 = !{!21, !21, i64 0}
!21 = !{!"any pointer", !7, i64 0}
